target datalayout = "e-m:e-p270:32:32-p271:32:32-p272:64:64-i64:64-i128:128-f80:128-n8:16:32:64-S128"
target triple = "x86_64-pc-linux-gnu"

%struct._zend_executor_globals = type { %struct._zval_struct, %struct._zval_struct, [32 x ptr], ptr, ptr, %struct._zend_array, %struct._zend_array, ptr, i32, i32, ptr, ptr, ptr, ptr, ptr, ptr, i64, ptr, ptr, i32, i32, i64, i32, i32, i32, i8, i8, %struct.zend_atomic_bool_s, %struct.zend_atomic_bool_s, ptr, i64, ptr, ptr, %struct._zend_array, %struct._zend_array, i32, i8, %struct._zval_struct, %struct._zval_struct, %struct._zend_stack, %struct._zend_stack, %struct._zend_stack, ptr, i32, i32, i64, ptr, ptr, ptr, %struct._zend_objects_store, ptr, ptr, ptr, [3 x %struct._zend_op], ptr, i8, i8, i64, i32, i32, ptr, [16 x %struct._HashTableIterator], ptr, %union._zend_function, %struct._zend_op, %struct._zend_array, i64, %struct.zend_get_gc_buffer, ptr, ptr, ptr, i64, i8, i32, ptr, ptr, i64, %struct._zend_call_stack, i64, i64, [6 x ptr] }
%struct.zend_atomic_bool_s = type { i8 }
%struct._zval_struct = type { %union._zend_value, %union.anon.2, %union.anon.5 }
%union._zend_value = type { i64 }
%union.anon.2 = type { i32 }
%union.anon.5 = type { i32 }
%struct._zend_stack = type { i32, i32, i32, ptr }
%struct._zend_objects_store = type { ptr, i32, i32, i32 }
%struct._HashTableIterator = type { ptr, i32, i32 }
%union._zend_function = type { %struct._zend_op_array }
%struct._zend_op_array = type { i8, [3 x i8], i32, ptr, ptr, ptr, i32, i32, ptr, ptr, ptr, ptr, i32, i32, i32, i32, ptr, ptr, ptr, ptr, ptr, i32, i32, ptr, ptr, ptr, i32, i32, i32, i32, ptr, ptr, [6 x ptr] }
%struct._zend_op = type { ptr, %union._znode_op, %union._znode_op, %union._znode_op, i32, i32, i8, i8, i8, i8 }
%union._znode_op = type { i32 }
%struct._zend_array = type { %struct._zend_refcounted_h, %union.anon.7, i32, %union.anon.9, i32, i32, i32, i32, i64, ptr }
%struct._zend_refcounted_h = type { i32, %union.anon.6 }
%union.anon.6 = type { i32 }
%union.anon.7 = type { i32 }
%union.anon.9 = type { ptr }
%struct.zend_get_gc_buffer = type { ptr, ptr, ptr }
%struct._zend_call_stack = type { ptr, i64 }
%struct._spl_filesystem_object = type { ptr, ptr, ptr, ptr, ptr, i32, i64, ptr, ptr, %union.anon, %struct._zend_object }
%union.anon = type { %struct.anon }
%struct.anon = type { ptr, ptr, i32, ptr, ptr, ptr, %struct._php_stream_dirent }
%struct._php_stream_dirent = type { [256 x i8], i8 }
%struct._zend_object = type { %struct._zend_refcounted_h, i32, ptr, ptr, ptr, [1 x %struct._zval_struct] }
%struct._zend_execute_data = type { ptr, ptr, ptr, ptr, %struct._zval_struct, ptr, ptr, ptr, ptr }
%struct.anon.0 = type { ptr, ptr, ptr, ptr, %struct._zval_struct, ptr, i64, i64, i64, %struct._zval_struct, ptr, i8, i8, i32 }

@executor_globals = external global %struct._zend_executor_globals, align 8
@.str = private unnamed_addr constant [23 x i8] c"Object not initialized\00", align 1
@.str.28 = private unnamed_addr constant [4 x i8] c"l|l\00", align 1

; Function Attrs: nounwind uwtable
define internal void @spl_filesystem_file_free_line(ptr noundef %0) #0 {
  %2 = alloca ptr, align 8
  %3 = alloca ptr, align 8
  store ptr %0, ptr %3, align 8
  %4 = load ptr, ptr %3, align 8
  %5 = getelementptr inbounds %struct._spl_filesystem_object, ptr %4, i32 0, i32 9
  %6 = getelementptr inbounds %struct.anon.0, ptr %5, i32 0, i32 5
  %7 = load ptr, ptr %6, align 8
  %8 = icmp ne ptr %7, null
  br i1 %8, label %9, label %17

9:                                                ; preds = %1
  %10 = load ptr, ptr %3, align 8
  %11 = getelementptr inbounds %struct._spl_filesystem_object, ptr %10, i32 0, i32 9
  %12 = getelementptr inbounds %struct.anon.0, ptr %11, i32 0, i32 5
  %13 = load ptr, ptr %12, align 8
  call void @_efree(ptr noundef %13)
  %14 = load ptr, ptr %3, align 8
  %15 = getelementptr inbounds %struct._spl_filesystem_object, ptr %14, i32 0, i32 9
  %16 = getelementptr inbounds %struct.anon.0, ptr %15, i32 0, i32 5
  store ptr null, ptr %16, align 8
  br label %17

17:                                               ; preds = %9, %1
  %18 = load ptr, ptr %3, align 8
  %19 = getelementptr inbounds %struct._spl_filesystem_object, ptr %18, i32 0, i32 9
  %20 = getelementptr inbounds %struct.anon.0, ptr %19, i32 0, i32 4
  store ptr %20, ptr %2, align 8
  %21 = load ptr, ptr %2, align 8
  %22 = getelementptr inbounds %struct._zval_struct, ptr %21, i32 0, i32 1
  %23 = load i8, ptr %22, align 8
  %24 = zext i8 %23 to i32
  %25 = icmp eq i32 %24, 0
  br i1 %25, label %36, label %26

26:                                               ; preds = %17
  %27 = load ptr, ptr %3, align 8
  %28 = getelementptr inbounds %struct._spl_filesystem_object, ptr %27, i32 0, i32 9
  %29 = getelementptr inbounds %struct.anon.0, ptr %28, i32 0, i32 4
  call void @zval_ptr_dtor(ptr noundef %29)
  br label %30

30:                                               ; preds = %26
  %31 = load ptr, ptr %3, align 8
  %32 = getelementptr inbounds %struct._spl_filesystem_object, ptr %31, i32 0, i32 9
  %33 = getelementptr inbounds %struct.anon.0, ptr %32, i32 0, i32 4
  %34 = getelementptr inbounds %struct._zval_struct, ptr %33, i32 0, i32 1
  store i32 0, ptr %34, align 8
  br label %35

35:                                               ; preds = %30
  br label %36

36:                                               ; preds = %35, %17
  ret void
}

; Function Attrs: nounwind uwtable
define internal ptr @spl_filesystem_from_obj(ptr noundef %0) #0 {
  %2 = alloca ptr, align 8
  store ptr %0, ptr %2, align 8
  %3 = load ptr, ptr %2, align 8
  %4 = getelementptr inbounds i8, ptr %3, i64 -384
  ret ptr %4
}

; Function Attrs: nounwind uwtable
define hidden void @zim_SplFileObject_fseek(ptr noundef %0, ptr noundef %1) #0 {
  %3 = alloca ptr, align 8
  %4 = alloca ptr, align 8
  %5 = alloca ptr, align 8
  %6 = alloca i64, align 8
  %7 = alloca i64, align 8
  %8 = alloca ptr, align 8
  store ptr %0, ptr %3, align 8
  store ptr %1, ptr %4, align 8
  %9 = load ptr, ptr %3, align 8
  %10 = getelementptr inbounds %struct._zend_execute_data, ptr %9, i32 0, i32 4
  %11 = getelementptr inbounds %struct._zval_struct, ptr %10, i32 0, i32 0
  %12 = load ptr, ptr %11, align 8
  %13 = call ptr @spl_filesystem_from_obj(ptr noundef %12)
  store ptr %13, ptr %5, align 8
  store i64 0, ptr %7, align 8
  %14 = load ptr, ptr %3, align 8
  %15 = getelementptr inbounds %struct._zend_execute_data, ptr %14, i32 0, i32 4
  %16 = getelementptr inbounds %struct._zval_struct, ptr %15, i32 0, i32 2
  %17 = load i32, ptr %16, align 4
  %18 = call i32 (i32, ptr, ...) @zend_parse_parameters(i32 noundef %17, ptr noundef @.str.28, ptr noundef %6, ptr noundef %7)
  %19 = icmp eq i32 %18, -1
  br i1 %19, label %20, label %25

20:                                               ; preds = %2
  br label %21

21:                                               ; preds = %20
  %22 = load ptr, ptr getelementptr inbounds (%struct._zend_executor_globals, ptr @executor_globals, i32 0, i32 50), align 8
  %23 = icmp ne ptr %22, null
  call void @llvm.assume(i1 %23)
  br label %55

24:                                               ; No predecessors!
  br label %25

25:                                               ; preds = %24, %2
  %26 = load ptr, ptr %5, align 8
  %27 = getelementptr inbounds %struct._spl_filesystem_object, ptr %26, i32 0, i32 9
  %28 = getelementptr inbounds %struct.anon.0, ptr %27, i32 0, i32 0
  %29 = load ptr, ptr %28, align 8
  %30 = icmp ne ptr %29, null
  br i1 %30, label %36, label %31

31:                                               ; preds = %25
  call void (ptr, ptr, ...) @zend_throw_error(ptr noundef null, ptr noundef @.str)
  br label %32

32:                                               ; preds = %31
  %33 = load ptr, ptr getelementptr inbounds (%struct._zend_executor_globals, ptr @executor_globals, i32 0, i32 50), align 8
  %34 = icmp ne ptr %33, null
  call void @llvm.assume(i1 %34)
  br label %55

35:                                               ; No predecessors!
  br label %36

36:                                               ; preds = %35, %25
  %37 = load ptr, ptr %5, align 8
  call void @spl_filesystem_file_free_line(ptr noundef %37)
  br label %38

38:                                               ; preds = %36
  br label %39

39:                                               ; preds = %38
  %40 = load ptr, ptr %4, align 8
  store ptr %40, ptr %8, align 8
  %41 = load ptr, ptr %5, align 8
  %42 = getelementptr inbounds %struct._spl_filesystem_object, ptr %41, i32 0, i32 9
  %43 = getelementptr inbounds %struct.anon.0, ptr %42, i32 0, i32 0
  %44 = load ptr, ptr %43, align 8
  %45 = load i64, ptr %6, align 8
  %46 = load i64, ptr %7, align 8
  %47 = trunc i64 %46 to i32
  %48 = call i32 @_php_stream_seek(ptr noundef %44, i64 noundef %45, i32 noundef %47)
  %49 = sext i32 %48 to i64
  %50 = load ptr, ptr %8, align 8
  %51 = getelementptr inbounds %struct._zval_struct, ptr %50, i32 0, i32 0
  store i64 %49, ptr %51, align 8
  %52 = load ptr, ptr %8, align 8
  %53 = getelementptr inbounds %struct._zval_struct, ptr %52, i32 0, i32 1
  store i32 4, ptr %53, align 8
  br label %54

54:                                               ; preds = %39
  br label %55

55:                                               ; preds = %54, %32, %21
  ret void
}