; Function Attrs: nounwind uwtable
define hidden void @zim_SplFileObject_fseek(ptr nocapture noundef readonly %0, ptr nocapture noundef writeonly %1) #0 {
  %3 = alloca i64, align 8
  %4 = alloca i64, align 8
  %5 = getelementptr inbounds i8, ptr %0, i64 32
  %6 = load ptr, ptr %5, align 8
  store i64 0, ptr %4, align 8
  %7 = getelementptr inbounds i8, ptr %0, i64 44
  %8 = load i32, ptr %7, align 4
  %9 = call i32 (i32, ptr, ...) @zend_parse_parameters(i32 noundef %8, ptr noundef nonnull @.str.28, ptr noundef nonnull %3, ptr noundef nonnull %4) #18
  %10 = icmp eq i32 %9, -1
  br i1 %10, label %11, label %14

11:                                               ; preds = %2
  %12 = load ptr, ptr getelementptr inbounds (%struct._zend_executor_globals, ptr @executor_globals, i64 0, i32 50), align 8
  %13 = icmp ne ptr %12, null
  call void @llvm.assume(i1 %13)
  br label %37

14:                                               ; preds = %2
  %15 = getelementptr inbounds i8, ptr %6, i64 -312
  %16 = load ptr, ptr %15, align 8
  %.not = icmp eq ptr %16, null
  br i1 %.not, label %17, label %20

17:                                               ; preds = %14
  call void (ptr, ptr, ...) @zend_throw_error(ptr noundef null, ptr noundef nonnull @.str) #18
  %18 = load ptr, ptr getelementptr inbounds (%struct._zend_executor_globals, ptr @executor_globals, i64 0, i32 50), align 8
  %19 = icmp ne ptr %18, null
  call void @llvm.assume(i1 %19)
  br label %37

20:                                               ; preds = %14
  %21 = getelementptr inbounds i8, ptr %6, i64 -264
  %22 = load ptr, ptr %21, align 8
  %.not.i = icmp eq ptr %22, null
  br i1 %.not.i, label %24, label %23

23:                                               ; preds = %20
  call void @_efree(ptr noundef nonnull %22) #18
  store ptr null, ptr %21, align 8
  br label %24

24:                                               ; preds = %23, %20
  %25 = getelementptr inbounds i8, ptr %6, i64 -272
  %26 = load i8, ptr %25, align 8
  %27 = icmp eq i8 %26, 0
  br i1 %27, label %spl_filesystem_file_free_line.exit, label %28

28:                                               ; preds = %24
  %29 = getelementptr inbounds i8, ptr %6, i64 -280
  call void @zval_ptr_dtor(ptr noundef nonnull %29) #18
  store i32 0, ptr %25, align 8
  br label %spl_filesystem_file_free_line.exit

spl_filesystem_file_free_line.exit:               ; preds = %24, %28
  %30 = load ptr, ptr %15, align 8
  %31 = load i64, ptr %3, align 8
  %32 = load i64, ptr %4, align 8
  %33 = trunc i64 %32 to i32
  %34 = call i32 @_php_stream_seek(ptr noundef %30, i64 noundef %31, i32 noundef %33) #18
  %35 = sext i32 %34 to i64
  store i64 %35, ptr %1, align 8
  %36 = getelementptr inbounds i8, ptr %1, i64 8
  store i32 4, ptr %36, align 8
  br label %37

37:                                               ; preds = %spl_filesystem_file_free_line.exit, %17, %11
  ret void
}